target datalayout = "e-m:e-p270:32:32-p271:32:32-p272:64:64-i64:64-i128:128-f80:128-n8:16:32:64-S128"
target triple = "x86_64-pc-linux-gnu"

%struct.MRef = type { i64 }
%struct.GCRef = type { i64 }
%union.TValue = type { i64 }
%struct.GCfuncL = type { %struct.GCRef, i8, i8, i8, i8, %struct.GCRef, %struct.GCRef, %struct.MRef, [1 x %struct.GCRef] }
%struct.GCfuncC = type { %struct.GCRef, i8, i8, i8, i8, %struct.GCRef, %struct.GCRef, %struct.MRef, ptr, [1 x %union.TValue] }

; Function Attrs: nounwind uwtable
define internal i32 @lj_cf_debug_upvalueid(ptr noundef %0) #0 {
  %2 = alloca ptr, align 8
  %3 = alloca ptr, align 8
  %4 = alloca i32, align 4
  store ptr %0, ptr %2, align 8, !tbaa !4
  call void @llvm.lifetime.start.p0(i64 8, ptr %3) #8
  %5 = load ptr, ptr %2, align 8, !tbaa !4
  %6 = call ptr @lj_lib_checkfunc(ptr noundef %5, i32 noundef 1)
  store ptr %6, ptr %3, align 8, !tbaa !36
  call void @llvm.lifetime.start.p0(i64 4, ptr %4) #8
  %7 = load ptr, ptr %2, align 8, !tbaa !4
  %8 = call i32 @lj_lib_checkint(ptr noundef %7, i32 noundef 2)
  %9 = sub nsw i32 %8, 1
  store i32 %9, ptr %4, align 4, !tbaa !19
  %10 = load i32, ptr %4, align 4, !tbaa !19
  %11 = load ptr, ptr %3, align 8, !tbaa !36
  %12 = getelementptr inbounds nuw %struct.GCfuncL, ptr %11, i32 0, i32 4
  %13 = load i8, ptr %12, align 1, !tbaa !17
  %14 = zext i8 %13 to i32
  %15 = icmp uge i32 %10, %14
  br i1 %15, label %16, label %18

16:                                               ; preds = %1
  %17 = load ptr, ptr %2, align 8, !tbaa !4
  call void @lj_err_arg(ptr noundef %17, i32 noundef 2, i32 noundef 1114) #7
  unreachable

18:                                               ; preds = %1
  %19 = load ptr, ptr %2, align 8, !tbaa !4
  %20 = load ptr, ptr %3, align 8, !tbaa !36
  %21 = getelementptr inbounds nuw %struct.GCfuncC, ptr %20, i32 0, i32 3
  %22 = load i8, ptr %21, align 2, !tbaa !17
  %23 = zext i8 %22 to i32
  %24 = icmp eq i32 %23, 0
  br i1 %24, label %25, label %34

25:                                               ; preds = %18
  %26 = load ptr, ptr %3, align 8, !tbaa !36
  %27 = getelementptr inbounds nuw %struct.GCfuncL, ptr %26, i32 0, i32 8
  %28 = load i32, ptr %4, align 4, !tbaa !19
  %29 = sext i32 %28 to i64
  %30 = getelementptr inbounds [1 x %struct.GCRef], ptr %27, i64 0, i64 %29
  %31 = getelementptr inbounds nuw %struct.GCRef, ptr %30, i32 0, i32 0
  %32 = load i64, ptr %31, align 8, !tbaa !17
  %33 = inttoptr i64 %32 to ptr
  br label %40

34:                                               ; preds = %18
  %35 = load ptr, ptr %3, align 8, !tbaa !36
  %36 = getelementptr inbounds nuw %struct.GCfuncC, ptr %35, i32 0, i32 9
  %37 = load i32, ptr %4, align 4, !tbaa !19
  %38 = sext i32 %37 to i64
  %39 = getelementptr inbounds [1 x %union.TValue], ptr %36, i64 0, i64 %38
  br label %40

40:                                               ; preds = %34, %25
  %41 = phi ptr [ %33, %25 ], [ %39, %34 ]
  call void @lua_pushlightuserdata(ptr noundef %19, ptr noundef %41)
  call void @llvm.lifetime.end.p0(i64 4, ptr %4) #8
  call void @llvm.lifetime.end.p0(i64 8, ptr %3) #8
  ret i32 1
}