; Function Attrs: nounwind uwtable
define internal noundef i32 @lj_cf_debug_upvalueid(ptr noundef %0) #0 {
  %2 = tail call ptr @lj_lib_checkfunc(ptr noundef %0, i32 noundef 1) #10
  %3 = tail call i32 @lj_lib_checkint(ptr noundef %0, i32 noundef 2) #10
  %4 = add nsw i32 %3, -1
  %5 = getelementptr inbounds nuw i8, ptr %2, i64 11
  %6 = load i8, ptr %5, align 1, !tbaa !15
  %7 = zext i8 %6 to i32
  %.not = icmp ult i32 %4, %7
  br i1 %.not, label %9, label %8

8:                                                ; preds = %1
  tail call void @lj_err_arg(ptr noundef %0, i32 noundef 2, i32 noundef 1114) #11
  unreachable

9:                                                ; preds = %1
  %10 = getelementptr inbounds nuw i8, ptr %2, i64 10
  %11 = load i8, ptr %10, align 2, !tbaa !15
  %12 = icmp eq i8 %11, 0
  %13 = zext nneg i32 %4 to i64
  br i1 %12, label %14, label %19

14:                                               ; preds = %9
  %15 = getelementptr inbounds nuw i8, ptr %2, i64 40
  %16 = getelementptr inbounds nuw [1 x %struct.GCRef], ptr %15, i64 0, i64 %13
  %17 = load i64, ptr %16, align 8, !tbaa !15
  %18 = inttoptr i64 %17 to ptr
  br label %22

19:                                               ; preds = %9
  %20 = getelementptr inbounds nuw i8, ptr %2, i64 48
  %21 = getelementptr inbounds nuw [1 x %union.TValue], ptr %20, i64 0, i64 %13
  br label %22

22:                                               ; preds = %19, %14
  %23 = phi ptr [ %18, %14 ], [ %21, %19 ]
  tail call void @lua_pushlightuserdata(ptr noundef %0, ptr noundef %23) #10
  ret i32 1
}